
void_char_array_buffer:     file format elf64-x86-64


Disassembly of section .init:

0000000000001000 <_init>:
    1000:	48 83 ec 08          	sub    rsp,0x8
    1004:	48 8b 05 f5 21 00 00 	mov    rax,QWORD PTR [rip+0x21f5]        # 3200 <__gmon_start__@Base>
    100b:	48 85 c0             	test   rax,rax
    100e:	74 02                	je     1012 <_init+0x12>
    1010:	ff d0                	call   rax
    1012:	48 83 c4 08          	add    rsp,0x8
    1016:	c3                   	ret    

Disassembly of section .plt:

0000000000001020 <puts@plt-0x10>:
    1020:	ff 35 e2 2f 00 00    	push   QWORD PTR [rip+0x2fe2]        # 4008 <_GLOBAL_OFFSET_TABLE_+0x8>
    1026:	ff 25 e4 2f 00 00    	jmp    QWORD PTR [rip+0x2fe4]        # 4010 <_GLOBAL_OFFSET_TABLE_+0x10>
    102c:	0f 1f 40 00          	nop    DWORD PTR [rax+0x0]

0000000000001030 <puts@plt>:
    1030:	ff 25 e2 2f 00 00    	jmp    QWORD PTR [rip+0x2fe2]        # 4018 <puts@GLIBC_2.2.5>
    1036:	68 00 00 00 00       	push   0x0
    103b:	e9 e0 ff ff ff       	jmp    1020 <_init+0x20>

0000000000001040 <fgets@plt>:
    1040:	ff 25 da 2f 00 00    	jmp    QWORD PTR [rip+0x2fda]        # 4020 <fgets@GLIBC_2.2.5>
    1046:	68 01 00 00 00       	push   0x1
    104b:	e9 d0 ff ff ff       	jmp    1020 <_init+0x20>

Disassembly of section .plt.got:

0000000000001050 <__cxa_finalize@plt>:
    1050:	ff 25 ba 21 00 00    	jmp    QWORD PTR [rip+0x21ba]        # 3210 <__cxa_finalize@GLIBC_2.2.5>
    1056:	66 90                	xchg   ax,ax

Disassembly of section .text:

0000000000001060 <_start>:
    1060:	31 ed                	xor    ebp,ebp
    1062:	49 89 d1             	mov    r9,rdx
    1065:	5e                   	pop    rsi
    1066:	48 89 e2             	mov    rdx,rsp
    1069:	48 83 e4 f0          	and    rsp,0xfffffffffffffff0
    106d:	50                   	push   rax
    106e:	54                   	push   rsp
    106f:	4c 8d 05 7a 01 00 00 	lea    r8,[rip+0x17a]        # 11f0 <__libc_csu_fini>
    1076:	48 8d 0d 13 01 00 00 	lea    rcx,[rip+0x113]        # 1190 <__libc_csu_init>
    107d:	48 8d 3d f0 00 00 00 	lea    rdi,[rip+0xf0]        # 1174 <main>
    1084:	ff 15 6e 21 00 00    	call   QWORD PTR [rip+0x216e]        # 31f8 <__libc_start_main@GLIBC_2.2.5>
    108a:	f4                   	hlt    
    108b:	0f 1f 44 00 00       	nop    DWORD PTR [rax+rax*1+0x0]

0000000000001090 <deregister_tm_clones>:
    1090:	48 8d 3d a1 2f 00 00 	lea    rdi,[rip+0x2fa1]        # 4038 <__TMC_END__>
    1097:	48 8d 05 9a 2f 00 00 	lea    rax,[rip+0x2f9a]        # 4038 <__TMC_END__>
    109e:	48 39 f8             	cmp    rax,rdi
    10a1:	74 15                	je     10b8 <deregister_tm_clones+0x28>
    10a3:	48 8b 05 46 21 00 00 	mov    rax,QWORD PTR [rip+0x2146]        # 31f0 <_ITM_deregisterTMCloneTable@Base>
    10aa:	48 85 c0             	test   rax,rax
    10ad:	74 09                	je     10b8 <deregister_tm_clones+0x28>
    10af:	ff e0                	jmp    rax
    10b1:	0f 1f 80 00 00 00 00 	nop    DWORD PTR [rax+0x0]
    10b8:	c3                   	ret    
    10b9:	0f 1f 80 00 00 00 00 	nop    DWORD PTR [rax+0x0]

00000000000010c0 <register_tm_clones>:
    10c0:	48 8d 3d 71 2f 00 00 	lea    rdi,[rip+0x2f71]        # 4038 <__TMC_END__>
    10c7:	48 8d 35 6a 2f 00 00 	lea    rsi,[rip+0x2f6a]        # 4038 <__TMC_END__>
    10ce:	48 29 fe             	sub    rsi,rdi
    10d1:	48 89 f0             	mov    rax,rsi
    10d4:	48 c1 ee 3f          	shr    rsi,0x3f
    10d8:	48 c1 f8 03          	sar    rax,0x3
    10dc:	48 01 c6             	add    rsi,rax
    10df:	48 d1 fe             	sar    rsi,1
    10e2:	74 14                	je     10f8 <register_tm_clones+0x38>
    10e4:	48 8b 05 1d 21 00 00 	mov    rax,QWORD PTR [rip+0x211d]        # 3208 <_ITM_registerTMCloneTable@Base>
    10eb:	48 85 c0             	test   rax,rax
    10ee:	74 08                	je     10f8 <register_tm_clones+0x38>
    10f0:	ff e0                	jmp    rax
    10f2:	66 0f 1f 44 00 00    	nop    WORD PTR [rax+rax*1+0x0]
    10f8:	c3                   	ret    
    10f9:	0f 1f 80 00 00 00 00 	nop    DWORD PTR [rax+0x0]

0000000000001100 <__do_global_dtors_aux>:
    1100:	80 3d 41 2f 00 00 00 	cmp    BYTE PTR [rip+0x2f41],0x0        # 4048 <completed.0>
    1107:	75 2f                	jne    1138 <__do_global_dtors_aux+0x38>
    1109:	55                   	push   rbp
    110a:	48 83 3d fe 20 00 00 	cmp    QWORD PTR [rip+0x20fe],0x0        # 3210 <__cxa_finalize@GLIBC_2.2.5>
    1111:	00 
    1112:	48 89 e5             	mov    rbp,rsp
    1115:	74 0c                	je     1123 <__do_global_dtors_aux+0x23>
    1117:	48 8b 3d 12 2f 00 00 	mov    rdi,QWORD PTR [rip+0x2f12]        # 4030 <__dso_handle>
    111e:	e8 2d ff ff ff       	call   1050 <__cxa_finalize@plt>
    1123:	e8 68 ff ff ff       	call   1090 <deregister_tm_clones>
    1128:	c6 05 19 2f 00 00 01 	mov    BYTE PTR [rip+0x2f19],0x1        # 4048 <completed.0>
    112f:	5d                   	pop    rbp
    1130:	c3                   	ret    
    1131:	0f 1f 80 00 00 00 00 	nop    DWORD PTR [rax+0x0]
    1138:	c3                   	ret    
    1139:	0f 1f 80 00 00 00 00 	nop    DWORD PTR [rax+0x0]

0000000000001140 <frame_dummy>:
    1140:	e9 7b ff ff ff       	jmp    10c0 <register_tm_clones>

0000000000001145 <return_input>:
    1145:	55                   	push   rbp
    1146:	48 89 e5             	mov    rbp,rsp
    1149:	48 83 ec 20          	sub    rsp,0x20
    114d:	48 8b 15 ec 2e 00 00 	mov    rdx,QWORD PTR [rip+0x2eec]        # 4040 <stdin@GLIBC_2.2.5>
    1154:	48 8d 45 e0          	lea    rax,[rbp-0x20]
    1158:	be 0a 00 00 00       	mov    esi,0xa
    115d:	48 89 c7             	mov    rdi,rax
    1160:	e8 db fe ff ff       	call   1040 <fgets@plt>
    1165:	48 8d 45 e0          	lea    rax,[rbp-0x20]
    1169:	48 89 c7             	mov    rdi,rax
    116c:	e8 bf fe ff ff       	call   1030 <puts@plt>
    1171:	90                   	nop
    1172:	c9                   	leave  
    1173:	c3                   	ret    

0000000000001174 <main>:
    1174:	55                   	push   rbp
    1175:	48 89 e5             	mov    rbp,rsp
    1178:	e8 c8 ff ff ff       	call   1145 <return_input>
    117d:	b8 00 00 00 00       	mov    eax,0x0
    1182:	5d                   	pop    rbp
    1183:	c3                   	ret    
    1184:	66 2e 0f 1f 84 00 00 	cs nop WORD PTR [rax+rax*1+0x0]
    118b:	00 00 00 
    118e:	66 90                	xchg   ax,ax

0000000000001190 <__libc_csu_init>:
    1190:	41 57                	push   r15
    1192:	4c 8d 3d 67 1e 00 00 	lea    r15,[rip+0x1e67]        # 3000 <__frame_dummy_init_array_entry>
    1199:	41 56                	push   r14
    119b:	49 89 d6             	mov    r14,rdx
    119e:	41 55                	push   r13
    11a0:	49 89 f5             	mov    r13,rsi
    11a3:	41 54                	push   r12
    11a5:	41 89 fc             	mov    r12d,edi
    11a8:	55                   	push   rbp
    11a9:	48 8d 2d 58 1e 00 00 	lea    rbp,[rip+0x1e58]        # 3008 <__do_global_dtors_aux_fini_array_entry>
    11b0:	53                   	push   rbx
    11b1:	4c 29 fd             	sub    rbp,r15
    11b4:	48 83 ec 08          	sub    rsp,0x8
    11b8:	e8 43 fe ff ff       	call   1000 <_init>
    11bd:	48 c1 fd 03          	sar    rbp,0x3
    11c1:	74 1b                	je     11de <__libc_csu_init+0x4e>
    11c3:	31 db                	xor    ebx,ebx
    11c5:	0f 1f 00             	nop    DWORD PTR [rax]
    11c8:	4c 89 f2             	mov    rdx,r14
    11cb:	4c 89 ee             	mov    rsi,r13
    11ce:	44 89 e7             	mov    edi,r12d
    11d1:	41 ff 14 df          	call   QWORD PTR [r15+rbx*8]
    11d5:	48 83 c3 01          	add    rbx,0x1
    11d9:	48 39 dd             	cmp    rbp,rbx
    11dc:	75 ea                	jne    11c8 <__libc_csu_init+0x38>
    11de:	48 83 c4 08          	add    rsp,0x8
    11e2:	5b                   	pop    rbx
    11e3:	5d                   	pop    rbp
    11e4:	41 5c                	pop    r12
    11e6:	41 5d                	pop    r13
    11e8:	41 5e                	pop    r14
    11ea:	41 5f                	pop    r15
    11ec:	c3                   	ret    
    11ed:	0f 1f 00             	nop    DWORD PTR [rax]

00000000000011f0 <__libc_csu_fini>:
    11f0:	c3                   	ret    

Disassembly of section .fini:

00000000000011f4 <_fini>:
    11f4:	48 83 ec 08          	sub    rsp,0x8
    11f8:	48 83 c4 08          	add    rsp,0x8
    11fc:	c3                   	ret    

Disassembly of section .init:

0000000000001000 <_init>:
    1000:	48 83 ec 08          	sub    rsp,0x8
    1004:	48 8b 05 f5 21 00 00 	mov    rax,QWORD PTR [rip+0x21f5]        # 3200 <__gmon_start__@Base>
    100b:	48 85 c0             	test   rax,rax
    100e:	74 02                	je     1012 <_init+0x12>
    1010:	ff d0                	call   rax
    1012:	48 83 c4 08          	add    rsp,0x8
    1016:	c3                   	ret    

Disassembly of section .plt:

0000000000001020 <puts@plt-0x10>:
    1020:	ff 35 e2 2f 00 00    	push   QWORD PTR [rip+0x2fe2]        # 4008 <_GLOBAL_OFFSET_TABLE_+0x8>
    1026:	ff 25 e4 2f 00 00    	jmp    QWORD PTR [rip+0x2fe4]        # 4010 <_GLOBAL_OFFSET_TABLE_+0x10>
    102c:	0f 1f 40 00          	nop    DWORD PTR [rax+0x0]

0000000000001030 <puts@plt>:
    1030:	ff 25 e2 2f 00 00    	jmp    QWORD PTR [rip+0x2fe2]        # 4018 <puts@GLIBC_2.2.5>
    1036:	68 00 00 00 00       	push   0x0
    103b:	e9 e0 ff ff ff       	jmp    1020 <_init+0x20>

0000000000001040 <fgets@plt>:
    1040:	ff 25 da 2f 00 00    	jmp    QWORD PTR [rip+0x2fda]        # 4020 <fgets@GLIBC_2.2.5>
    1046:	68 01 00 00 00       	push   0x1
    104b:	e9 d0 ff ff ff       	jmp    1020 <_init+0x20>

Disassembly of section .plt.got:

0000000000001050 <__cxa_finalize@plt>:
    1050:	ff 25 ba 21 00 00    	jmp    QWORD PTR [rip+0x21ba]        # 3210 <__cxa_finalize@GLIBC_2.2.5>
    1056:	66 90                	xchg   ax,ax

Disassembly of section .text:

0000000000001060 <_start>:
    1060:	31 ed                	xor    ebp,ebp
    1062:	49 89 d1             	mov    r9,rdx
    1065:	5e                   	pop    rsi
    1066:	48 89 e2             	mov    rdx,rsp
    1069:	48 83 e4 f0          	and    rsp,0xfffffffffffffff0
    106d:	50                   	push   rax
    106e:	54                   	push   rsp
    106f:	4c 8d 05 7a 01 00 00 	lea    r8,[rip+0x17a]        # 11f0 <__libc_csu_fini>
    1076:	48 8d 0d 13 01 00 00 	lea    rcx,[rip+0x113]        # 1190 <__libc_csu_init>
    107d:	48 8d 3d f0 00 00 00 	lea    rdi,[rip+0xf0]        # 1174 <main>
    1084:	ff 15 6e 21 00 00    	call   QWORD PTR [rip+0x216e]        # 31f8 <__libc_start_main@GLIBC_2.2.5>
    108a:	f4                   	hlt    
    108b:	0f 1f 44 00 00       	nop    DWORD PTR [rax+rax*1+0x0]

0000000000001090 <deregister_tm_clones>:
    1090:	48 8d 3d a1 2f 00 00 	lea    rdi,[rip+0x2fa1]        # 4038 <__TMC_END__>
    1097:	48 8d 05 9a 2f 00 00 	lea    rax,[rip+0x2f9a]        # 4038 <__TMC_END__>
    109e:	48 39 f8             	cmp    rax,rdi
    10a1:	74 15                	je     10b8 <deregister_tm_clones+0x28>
    10a3:	48 8b 05 46 21 00 00 	mov    rax,QWORD PTR [rip+0x2146]        # 31f0 <_ITM_deregisterTMCloneTable@Base>
    10aa:	48 85 c0             	test   rax,rax
    10ad:	74 09                	je     10b8 <deregister_tm_clones+0x28>
    10af:	ff e0                	jmp    rax
    10b1:	0f 1f 80 00 00 00 00 	nop    DWORD PTR [rax+0x0]
    10b8:	c3                   	ret    
    10b9:	0f 1f 80 00 00 00 00 	nop    DWORD PTR [rax+0x0]

00000000000010c0 <register_tm_clones>:
    10c0:	48 8d 3d 71 2f 00 00 	lea    rdi,[rip+0x2f71]        # 4038 <__TMC_END__>
    10c7:	48 8d 35 6a 2f 00 00 	lea    rsi,[rip+0x2f6a]        # 4038 <__TMC_END__>
    10ce:	48 29 fe             	sub    rsi,rdi
    10d1:	48 89 f0             	mov    rax,rsi
    10d4:	48 c1 ee 3f          	shr    rsi,0x3f
    10d8:	48 c1 f8 03          	sar    rax,0x3
    10dc:	48 01 c6             	add    rsi,rax
    10df:	48 d1 fe             	sar    rsi,1
    10e2:	74 14                	je     10f8 <register_tm_clones+0x38>
    10e4:	48 8b 05 1d 21 00 00 	mov    rax,QWORD PTR [rip+0x211d]        # 3208 <_ITM_registerTMCloneTable@Base>
    10eb:	48 85 c0             	test   rax,rax
    10ee:	74 08                	je     10f8 <register_tm_clones+0x38>
    10f0:	ff e0                	jmp    rax
    10f2:	66 0f 1f 44 00 00    	nop    WORD PTR [rax+rax*1+0x0]
    10f8:	c3                   	ret    
    10f9:	0f 1f 80 00 00 00 00 	nop    DWORD PTR [rax+0x0]

0000000000001100 <__do_global_dtors_aux>:
    1100:	80 3d 41 2f 00 00 00 	cmp    BYTE PTR [rip+0x2f41],0x0        # 4048 <completed.0>
    1107:	75 2f                	jne    1138 <__do_global_dtors_aux+0x38>
    1109:	55                   	push   rbp
    110a:	48 83 3d fe 20 00 00 	cmp    QWORD PTR [rip+0x20fe],0x0        # 3210 <__cxa_finalize@GLIBC_2.2.5>
    1111:	00 
    1112:	48 89 e5             	mov    rbp,rsp
    1115:	74 0c                	je     1123 <__do_global_dtors_aux+0x23>
    1117:	48 8b 3d 12 2f 00 00 	mov    rdi,QWORD PTR [rip+0x2f12]        # 4030 <__dso_handle>
    111e:	e8 2d ff ff ff       	call   1050 <__cxa_finalize@plt>
    1123:	e8 68 ff ff ff       	call   1090 <deregister_tm_clones>
    1128:	c6 05 19 2f 00 00 01 	mov    BYTE PTR [rip+0x2f19],0x1        # 4048 <completed.0>
    112f:	5d                   	pop    rbp
    1130:	c3                   	ret    
    1131:	0f 1f 80 00 00 00 00 	nop    DWORD PTR [rax+0x0]
    1138:	c3                   	ret    
    1139:	0f 1f 80 00 00 00 00 	nop    DWORD PTR [rax+0x0]

0000000000001140 <frame_dummy>:
    1140:	e9 7b ff ff ff       	jmp    10c0 <register_tm_clones>

0000000000001145 <return_input>:
    1145:	55                   	push   rbp
    1146:	48 89 e5             	mov    rbp,rsp
    1149:	48 83 ec 20          	sub    rsp,0x20
    114d:	48 8b 15 ec 2e 00 00 	mov    rdx,QWORD PTR [rip+0x2eec]        # 4040 <stdin@GLIBC_2.2.5>
    1154:	48 8d 45 e0          	lea    rax,[rbp-0x20]
    1158:	be 0a 00 00 00       	mov    esi,0xa
    115d:	48 89 c7             	mov    rdi,rax
    1160:	e8 db fe ff ff       	call   1040 <fgets@plt>
    1165:	48 8d 45 e0          	lea    rax,[rbp-0x20]
    1169:	48 89 c7             	mov    rdi,rax
    116c:	e8 bf fe ff ff       	call   1030 <puts@plt>
    1171:	90                   	nop
    1172:	c9                   	leave  
    1173:	c3                   	ret    

0000000000001174 <main>:
    1174:	55                   	push   rbp
    1175:	48 89 e5             	mov    rbp,rsp
    1178:	e8 c8 ff ff ff       	call   1145 <return_input>
    117d:	b8 00 00 00 00       	mov    eax,0x0
    1182:	5d                   	pop    rbp
    1183:	c3                   	ret    
    1184:	66 2e 0f 1f 84 00 00 	cs nop WORD PTR [rax+rax*1+0x0]
    118b:	00 00 00 
    118e:	66 90                	xchg   ax,ax

0000000000001190 <__libc_csu_init>:
    1190:	41 57                	push   r15
    1192:	4c 8d 3d 67 1e 00 00 	lea    r15,[rip+0x1e67]        # 3000 <__frame_dummy_init_array_entry>
    1199:	41 56                	push   r14
    119b:	49 89 d6             	mov    r14,rdx
    119e:	41 55                	push   r13
    11a0:	49 89 f5             	mov    r13,rsi
    11a3:	41 54                	push   r12
    11a5:	41 89 fc             	mov    r12d,edi
    11a8:	55                   	push   rbp
    11a9:	48 8d 2d 58 1e 00 00 	lea    rbp,[rip+0x1e58]        # 3008 <__do_global_dtors_aux_fini_array_entry>
    11b0:	53                   	push   rbx
    11b1:	4c 29 fd             	sub    rbp,r15
    11b4:	48 83 ec 08          	sub    rsp,0x8
    11b8:	e8 43 fe ff ff       	call   1000 <_init>
    11bd:	48 c1 fd 03          	sar    rbp,0x3
    11c1:	74 1b                	je     11de <__libc_csu_init+0x4e>
    11c3:	31 db                	xor    ebx,ebx
    11c5:	0f 1f 00             	nop    DWORD PTR [rax]
    11c8:	4c 89 f2             	mov    rdx,r14
    11cb:	4c 89 ee             	mov    rsi,r13
    11ce:	44 89 e7             	mov    edi,r12d
    11d1:	41 ff 14 df          	call   QWORD PTR [r15+rbx*8]
    11d5:	48 83 c3 01          	add    rbx,0x1
    11d9:	48 39 dd             	cmp    rbp,rbx
    11dc:	75 ea                	jne    11c8 <__libc_csu_init+0x38>
    11de:	48 83 c4 08          	add    rsp,0x8
    11e2:	5b                   	pop    rbx
    11e3:	5d                   	pop    rbp
    11e4:	41 5c                	pop    r12
    11e6:	41 5d                	pop    r13
    11e8:	41 5e                	pop    r14
    11ea:	41 5f                	pop    r15
    11ec:	c3                   	ret    
    11ed:	0f 1f 00             	nop    DWORD PTR [rax]

00000000000011f0 <__libc_csu_fini>:
    11f0:	c3                   	ret    

Disassembly of section .fini:

00000000000011f4 <_fini>:
    11f4:	48 83 ec 08          	sub    rsp,0x8
    11f8:	48 83 c4 08          	add    rsp,0x8
    11fc:	c3                   	ret    
